Archive member included because of file (symbol)

../../../../sys/libOS/eOS/libeOS-superH.a(memmove.o)
                              sift-mac.o (memmove)
../../../../sys/libOS/eOS/libeOS-superH.a(print.o)
                              pendulum.o (lprint)
../../../../tools/tools-lib/superH/libc.a(malloc.o)
                              sift-mac.o (free)
../../../../tools/tools-lib/superH/libc.a(printf.o)
                              pendulum.o (printf)
../../../../tools/tools-lib/superH/libc.a(exit.o)
                              pendulum.o (exit)
../../../../tools/tools-lib/superH/libc.a(impure.o)
                              ../../../../tools/tools-lib/superH/libc.a(malloc.o) (_impure_ptr)
../../../../tools/tools-lib/superH/libc.a(freer.o)
                              ../../../../tools/tools-lib/superH/libc.a(malloc.o) (_free_r)
../../../../tools/tools-lib/superH/libc.a(mallocr.o)
                              ../../../../tools/tools-lib/superH/libc.a(malloc.o) (_malloc_r)
../../../../tools/tools-lib/superH/libc.a(vfprintf.o)
                              ../../../../tools/tools-lib/superH/libc.a(printf.o) (vfprintf)
../../../../tools/tools-lib/superH/libc.a(syscalls.o)
                              ../../../../tools/tools-lib/superH/libc.a(exit.o) (_exit)
../../../../tools/tools-lib/superH/libc.a(mlock.o)
                              ../../../../tools/tools-lib/superH/libc.a(freer.o) (__malloc_lock)
../../../../tools/tools-lib/superH/libc.a(sbrkr.o)
                              ../../../../tools/tools-lib/superH/libc.a(freer.o) (_sbrk_r)
../../../../tools/tools-lib/superH/libc.a(fvwrite.o)
                              ../../../../tools/tools-lib/superH/libc.a(vfprintf.o) (__sfvwrite)
../../../../tools/tools-lib/superH/libc.a(findfp.o)
                              ../../../../tools/tools-lib/superH/libc.a(vfprintf.o) (__sinit)
../../../../tools/tools-lib/superH/libc.a(locale.o)
                              ../../../../tools/tools-lib/superH/libc.a(vfprintf.o) (localeconv)
../../../../tools/tools-lib/superH/libc.a(mbtowc_r.o)
                              ../../../../tools/tools-lib/superH/libc.a(vfprintf.o) (_mbtowc_r)
../../../../tools/tools-lib/superH/libc.a(strlen.o)
                              ../../../../tools/tools-lib/superH/libc.a(vfprintf.o) (strlen)
../../../../tools/tools-lib/superH/libc.a(fflush.o)
                              ../../../../tools/tools-lib/superH/libc.a(vfprintf.o) (fflush)
../../../../tools/tools-lib/superH/libc.a(wsetup.o)
                              ../../../../tools/tools-lib/superH/libc.a(vfprintf.o) (__swsetup)
../../../../tools/tools-lib/superH/libc.a(memchr.o)
                              ../../../../tools/tools-lib/superH/libc.a(vfprintf.o) (memchr)
../../../../tools/tools-lib/superH/libc.a(s_isinf.o)
                              ../../../../tools/tools-lib/superH/libc.a(vfprintf.o) (isinf)
../../../../tools/tools-lib/superH/libc.a(s_isnan.o)
                              ../../../../tools/tools-lib/superH/libc.a(vfprintf.o) (isnan)
../../../../tools/tools-lib/superH/libc.a(dtoa.o)
                              ../../../../tools/tools-lib/superH/libc.a(vfprintf.o) (_dtoa_r)
../../../../tools/tools-lib/superH/libc.a(trap.o)
                              ../../../../tools/tools-lib/superH/libc.a(syscalls.o) (__trap34)
../../../../tools/tools-lib/superH/libc.a(abort.o)
                              ../../../../tools/tools-lib/superH/libc.a(syscalls.o) (abort)
../../../../tools/tools-lib/superH/libc.a(stdio.o)
                              ../../../../tools/tools-lib/superH/libc.a(findfp.o) (__sclose)
../../../../tools/tools-lib/superH/libc.a(fwalk.o)
                              ../../../../tools/tools-lib/superH/libc.a(findfp.o) (_fwalk)
../../../../tools/tools-lib/superH/libc.a(memset.o)
                              ../../../../tools/tools-lib/superH/libc.a(findfp.o) (memset)
../../../../tools/tools-lib/superH/libc.a(strcmp.o)
                              ../../../../tools/tools-lib/superH/libc.a(locale.o) (strcmp)
../../../../tools/tools-lib/superH/libc.a(makebuf.o)
                              ../../../../tools/tools-lib/superH/libc.a(wsetup.o) (__smakebuf)
../../../../tools/tools-lib/superH/libc.a(mprec.o)
                              ../../../../tools/tools-lib/superH/libc.a(dtoa.o) (_Bfree)
../../../../tools/tools-lib/superH/libc.a(memcpy.o)
                              ../../../../tools/tools-lib/superH/libc.a(dtoa.o) (memcpy)
../../../../tools/tools-lib/superH/libc.a(signal.o)
                              ../../../../tools/tools-lib/superH/libc.a(abort.o) (raise)
../../../../tools/tools-lib/superH/libc.a(closer.o)
                              ../../../../tools/tools-lib/superH/libc.a(stdio.o) (_close_r)
../../../../tools/tools-lib/superH/libc.a(lseekr.o)
                              ../../../../tools/tools-lib/superH/libc.a(stdio.o) (_lseek_r)
../../../../tools/tools-lib/superH/libc.a(writer.o)
                              ../../../../tools/tools-lib/superH/libc.a(stdio.o) (_write_r)
../../../../tools/tools-lib/superH/libc.a(readr.o)
                              ../../../../tools/tools-lib/superH/libc.a(stdio.o) (_read_r)
../../../../tools/tools-lib/superH/libc.a(fstatr.o)
                              ../../../../tools/tools-lib/superH/libc.a(makebuf.o) (_fstat_r)
../../../../tools/tools-lib/superH/libc.a(callocr.o)
                              ../../../../tools/tools-lib/superH/libc.a(mprec.o) (_calloc_r)
../../../../tools/tools-lib/superH/libc.a(signalr.o)
                              ../../../../tools/tools-lib/superH/libc.a(signal.o) (_getpid_r)
../../../../tools/tools-lib/superH/libgcc.a(_si_to_df.o)
                              devmac.o (__floatsidf)
../../../../tools/tools-lib/superH/libgcc.a(_mul_df.o)
                              devmac.o (__muldf3)
../../../../tools/tools-lib/superH/libgcc.a(_usi_to_df.o)
                              devmac.o (__floatunsidf)
../../../../tools/tools-lib/superH/libgcc.a(_div_df.o)
                              devmac.o (__divdf3)
../../../../tools/tools-lib/superH/libgcc.a(_df_to_si.o)
                              devmac.o (__fixdfsi)
../../../../tools/tools-lib/superH/libgcc.a(_udivsi3.o)
                              sift-mac.o (__udivsi3)
../../../../tools/tools-lib/superH/libgcc.a(_mulsi3.o)
                              sift-mac.o (__mulsi3)
../../../../tools/tools-lib/superH/libgcc.a(_ashiftrt.o)
                              sift-mac.o (__ashiftrt_r4_8)
../../../../tools/tools-lib/superH/libgcc.a(_lt_df.o)
                              pendulum.o (__ltdf2)
../../../../tools/tools-lib/superH/libgcc.a(_ne_df.o)
                              pendulum.o (__nedf2)
../../../../tools/tools-lib/superH/libgcc.a(_sdivsi3.o)
                              ../../../../sys/libOS/eOS/libeOS-superH.a(print.o) (__sdivsi3)
../../../../tools/tools-lib/superH/libgcc.a(_ashiftlt.o)
                              ../../../../tools/tools-lib/superH/libc.a(freer.o) (__ashlsi3)
../../../../tools/tools-lib/superH/libgcc.a(_eq_df.o)
                              ../../../../tools/tools-lib/superH/libc.a(vfprintf.o) (__eqdf2)
../../../../tools/tools-lib/superH/libgcc.a(_lshiftrt.o)
                              ../../../../tools/tools-lib/superH/libc.a(dtoa.o) (__lshrsi3)
../../../../tools/tools-lib/superH/libgcc.a(_addsub_df.o)
                              ../../../../tools/tools-lib/superH/libc.a(dtoa.o) (__subdf3)
../../../../tools/tools-lib/superH/libgcc.a(_gt_df.o)
                              ../../../../tools/tools-lib/superH/libc.a(dtoa.o) (__gtdf2)
../../../../tools/tools-lib/superH/libgcc.a(_ge_df.o)
                              ../../../../tools/tools-lib/superH/libc.a(dtoa.o) (__gedf2)
../../../../tools/tools-lib/superH/libgcc.a(_ashiftrt_n.o)
                              ../../../../tools/tools-lib/superH/libc.a(mprec.o) (__ashrsi3)
../../../../tools/tools-lib/superH/libgcc.a(_pack_df.o)
                              ../../../../tools/tools-lib/superH/libgcc.a(_si_to_df.o) (__pack_d)
../../../../tools/tools-lib/superH/libgcc.a(_clzsi2.o)
                              ../../../../tools/tools-lib/superH/libgcc.a(_si_to_df.o) (__clzsi2)
../../../../tools/tools-lib/superH/libgcc.a(_ashldi3.o)
                              ../../../../tools/tools-lib/superH/libgcc.a(_si_to_df.o) (__ashldi3)
../../../../tools/tools-lib/superH/libgcc.a(_unpack_df.o)
                              ../../../../tools/tools-lib/superH/libgcc.a(_mul_df.o) (__unpack_d)
../../../../tools/tools-lib/superH/libgcc.a(_muldi3.o)
                              ../../../../tools/tools-lib/superH/libgcc.a(_mul_df.o) (__muldi3)
../../../../tools/tools-lib/superH/libgcc.a(_thenan_df.o)
                              ../../../../tools/tools-lib/superH/libgcc.a(_mul_df.o) (__thenan_df)
../../../../tools/tools-lib/superH/libgcc.a(_lshrdi3.o)
                              ../../../../tools/tools-lib/superH/libgcc.a(_usi_to_df.o) (__lshrdi3)
../../../../tools/tools-lib/superH/libgcc.a(_fpcmp_parts_df.o)
                              ../../../../tools/tools-lib/superH/libgcc.a(_lt_df.o) (__fpcmp_parts_d)
../../../../tools/tools-lib/superH/libgcc.a(_clz.o)
                              ../../../../tools/tools-lib/superH/libgcc.a(_clzsi2.o) (__clz_tab)

Allocating common symbols
Common symbol       size              file

SIFT_MAC            0x4               pendulum.o
REGSAVESTACK        0x24              pendulum.o
errno               0x4               ../../../../tools/tools-lib/superH/libc.a(syscalls.o)

Memory Configuration

Name             Origin             Length             Attributes
*default*        0x0000000000000000 0xffffffffffffffff

Linker script and memory map

Address of section .text set to 0x8004000

.text           0x0000000008004000     0x9480
                0x0000000008004000                _text = .
 *(.text)
 .text          0x0000000008004000      0x110 init.o
                0x0000000008004048                getssr
                0x0000000008004054                getgbr
                0x00000000080040f4                sleep
                0x0000000008004080                vec_stub_begin
                0x0000000008004042                getpsr
                0x000000000800405a                getvbr
                0x000000000800406c                getmach
                0x000000000800402a                spllo
                0x0000000008004066                getpr
                0x000000000800404e                getspc
                0x000000000800403c                spldone
                0x0000000008004072                getmacl
                0x000000000800401a                splhi
                0x00000000080040f4                vec_stub_end
                0x0000000008004060                getsp
 .text          0x0000000008004110       0x70 devrtc.o
                0x0000000008004110                devrtc_getusecs
 .text          0x0000000008004180       0x80 devrand.o
                0x00000000080041e4                devrand_seed
                0x0000000008004180                devrand_getrand
 .text          0x0000000008004200       0x20 devexcp.o
                0x0000000008004200                devexcp_getintevt
 .text          0x0000000008004220      0x180 misc.o
                0x00000000080042e0                xusleep
                0x0000000008004334                pow10
                0x000000000800428c                xudelay
                0x0000000008004262                devlogprintputc
                0x0000000008004220                sccputc
 .text          0x00000000080043a0       0x40 devsensor.o
                0x00000000080043c0                devsignal_write
                0x00000000080043a0                devsignal_read
 .text          0x00000000080043e0      0x2f0 devloc.o
                0x00000000080044a8                devloc_getxloc
                0x000000000800455c                devloc_getyloc
                0x00000000080043e0                devloc_getorbit
                0x0000000008004610                devloc_getzloc
                0x0000000008004444                devloc_getvelocity
 .text          0x00000000080046d0      0xa00 devmac.o
                0x0000000008004cf4                devmac_xmit
                0x0000000008004998                devmac_getmaxfsz
                0x00000000080046d0                devmac_cksum
                0x0000000008004b9c                devmac_getncsense
                0x0000000008004c48                devmac_getspeed
                0x0000000008004890                devmac_framedelay
                0x00000000080047e4                devmac_getncr
                0x0000000008004a44                devmac_getrxfsz
                0x0000000008004f78                devmac_recv
                0x0000000008005088                devmac_csense
                0x0000000008004af0                devmac_getncolls
                0x00000000080047d4                devmac_getcurifc
                0x0000000008005004                devmac_ctl
 .text          0x00000000080050d0      0xd10 sift-mac.o
                0x0000000008005cc4                sift_init
                0x000000000800595c                sift_freeframe
                0x00000000080059d0                sift_receive
                0x0000000008005a10                sift_nichdlr
                0x0000000008005724                sift_xmit
 .text          0x0000000008005de0      0x3d0 pendulum.o
                0x0000000008006170                fatal
                0x0000000008005fa6                nic_hdlr
                0x0000000008005e20                startup
                0x000000000800608c                intr_hdlr
 .text          0x00000000080061b0       0x60 ../../../../sys/libOS/eOS/libeOS-superH.a(memmove.o)
                0x00000000080061b0                memmove
 .text          0x0000000008006210      0x620 ../../../../sys/libOS/eOS/libeOS-superH.a(print.o)
                0x0000000008006750                sprint
                0x0000000008006788                fprint
                0x00000000080067c0                lprint
                0x000000000800671c                snprint
                0x00000000080067f8                print
 .text          0x0000000008006830       0x40 ../../../../tools/tools-lib/superH/libc.a(malloc.o)
                0x0000000008006830                free
                0x000000000800684c                malloc
 .text          0x0000000008006870       0x80 ../../../../tools/tools-lib/superH/libc.a(printf.o)
                0x00000000080068b4                _printf_r
                0x0000000008006870                printf
 .text          0x00000000080068f0       0x70 ../../../../tools/tools-lib/superH/libc.a(exit.o)
                0x00000000080068f0                exit
 .text          0x0000000008006960       0x10 ../../../../tools/tools-lib/superH/libc.a(impure.o)
 .text          0x0000000008006970      0x330 ../../../../tools/tools-lib/superH/libc.a(freer.o)
                0x0000000008006970                _malloc_trim_r
                0x0000000008006a40                _free_r
 .text          0x0000000008006ca0      0x5f0 ../../../../tools/tools-lib/superH/libc.a(mallocr.o)
                0x0000000008006ca0                _malloc_r
 .text          0x0000000008007290     0x1600 ../../../../tools/tools-lib/superH/libc.a(vfprintf.o)
                0x0000000008007380                _vfprintf_r
                0x00000000080072cc                vfprintf
 .text          0x0000000008008890      0x290 ../../../../tools/tools-lib/superH/libc.a(syscalls.o)
                0x00000000080089d8                _exit
                0x00000000080088c8                _getpid
                0x0000000008008950                _utime
                0x0000000008008a40                _write
                0x0000000008008a78                _read
                0x00000000080088b0                _unlink
                0x0000000008008a0c                _open
                0x00000000080089a0                _stat
                0x00000000080088bc                isatty
                0x0000000008008928                _wait
                0x00000000080089bc                _kill
                0x0000000008008988                _chmod
                0x00000000080088f4                _execv
                0x000000000800890c                _execve
                0x0000000008008890                _link
                0x00000000080088d4                _raise
                0x00000000080089f0                _creat
                0x00000000080088e0                _pipe
                0x000000000800896c                _chown
                0x0000000008008a5c                _lseek
                0x0000000008008a28                _close
                0x000000000800889c                _fstat
                0x000000000800893c                _fork
                0x0000000008008ab0                _sbrk
 .text          0x0000000008008b20       0x20 ../../../../tools/tools-lib/superH/libc.a(mlock.o)
                0x0000000008008b20                __malloc_lock
                0x0000000008008b2c                __malloc_unlock
 .text          0x0000000008008b40       0x50 ../../../../tools/tools-lib/superH/libc.a(sbrkr.o)
                0x0000000008008b40                _sbrk_r
 .text          0x0000000008008b90      0x280 ../../../../tools/tools-lib/superH/libc.a(fvwrite.o)
                0x0000000008008b90                __sfvwrite
 .text          0x0000000008008e10      0x1f0 ../../../../tools/tools-lib/superH/libc.a(findfp.o)
                0x0000000008008f50                __sfp
                0x0000000008008e58                __sinit
                0x0000000008008ee0                _cleanup
                0x0000000008008ec8                _cleanup_r
                0x0000000008008ef8                __sfmoreglue
 .text          0x0000000008009000       0xe0 ../../../../tools/tools-lib/superH/libc.a(locale.o)
                0x0000000008009088                setlocale
                0x0000000008009030                _setlocale_r
                0x0000000008009010                localeconv
                0x0000000008009000                _localeconv_r
 .text          0x00000000080090e0       0x40 ../../../../tools/tools-lib/superH/libc.a(mbtowc_r.o)
                0x00000000080090e0                _mbtowc_r
 .text          0x0000000008009120       0x60 ../../../../tools/tools-lib/superH/libc.a(strlen.o)
                0x0000000008009120                strlen
 .text          0x0000000008009180       0xe0 ../../../../tools/tools-lib/superH/libc.a(fflush.o)
                0x0000000008009180                fflush
 .text          0x0000000008009260       0xf0 ../../../../tools/tools-lib/superH/libc.a(wsetup.o)
                0x0000000008009260                __swsetup
 .text          0x0000000008009350       0xb0 ../../../../tools/tools-lib/superH/libc.a(memchr.o)
                0x0000000008009350                memchr
 .text          0x0000000008009400       0x30 ../../../../tools/tools-lib/superH/libc.a(s_isinf.o)
                0x0000000008009400                isinf
 .text          0x0000000008009430       0x30 ../../../../tools/tools-lib/superH/libc.a(s_isnan.o)
                0x0000000008009430                isnan
 .text          0x0000000008009460     0x12d0 ../../../../tools/tools-lib/superH/libc.a(dtoa.o)
                0x0000000008009610                _dtoa_r
 .text          0x000000000800a730       0x20 ../../../../tools/tools-lib/superH/libc.a(trap.o)
                0x000000000800a730                __trap34
 .text          0x000000000800a750       0x20 ../../../../tools/tools-lib/superH/libc.a(abort.o)
                0x000000000800a750                abort
 .text          0x000000000800a770      0x150 ../../../../tools/tools-lib/superH/libc.a(stdio.o)
                0x000000000800a7ec                __swrite
                0x000000000800a770                __sclose
                0x000000000800a85c                __sread
                0x000000000800a78c                __sseek
 .text          0x000000000800a8c0       0x70 ../../../../tools/tools-lib/superH/libc.a(fwalk.o)
                0x000000000800a8c0                _fwalk
 .text          0x000000000800a930       0x40 ../../../../tools/tools-lib/superH/libc.a(memset.o)
                0x000000000800a930                memset
 .text          0x000000000800a970       0x30 ../../../../tools/tools-lib/superH/libc.a(strcmp.o)
                0x000000000800a970                strcmp
 .text          0x000000000800a9a0      0x120 ../../../../tools/tools-lib/superH/libc.a(makebuf.o)
                0x000000000800a9a0                __smakebuf
 .text          0x000000000800aac0      0xd60 ../../../../tools/tools-lib/superH/libc.a(mprec.o)
                0x000000000800abdc                __mcmp
                0x000000000800ae10                _ratio
                0x000000000800b468                _i2b
                0x000000000800acb8                _b2d
                0x000000000800b634                _s2b
                0x000000000800aae0                _hi0bits
                0x000000000800b558                _pow5mult
                0x000000000800b0c4                __mdiff
                0x000000000800b1d8                _lshift
                0x000000000800b2d4                _multiply
                0x000000000800af9c                _d2b
                0x000000000800af18                _Balloc
                0x000000000800b7e0                __mprec_tinytens
                0x000000000800aea8                _mprec_log10
                0x000000000800b7b8                __mprec_bigtens
                0x000000000800ac20                _ulp
                0x000000000800aac0                _Bfree
                0x000000000800b6f0                __mprec_tens
                0x000000000800ab40                _lo0bits
                0x000000000800b48c                _multadd
 .text          0x000000000800b820       0xa0 ../../../../tools/tools-lib/superH/libc.a(memcpy.o)
                0x000000000800b820                memcpy
 .text          0x000000000800b8c0      0x250 ../../../../tools/tools-lib/superH/libc.a(signal.o)
                0x000000000800b9c0                _raise_r
                0x000000000800b9a4                __sigtramp
                0x000000000800ba6c                raise
                0x000000000800b918                _init_signal
                0x000000000800b930                __sigtramp_r
                0x000000000800baf0                signal
                0x000000000800ba88                _signal_r
                0x000000000800b8c0                _init_signal_r
 .text          0x000000000800bb10       0x50 ../../../../tools/tools-lib/superH/libc.a(closer.o)
                0x000000000800bb10                _close_r
 .text          0x000000000800bb60       0x50 ../../../../tools/tools-lib/superH/libc.a(lseekr.o)
                0x000000000800bb60                _lseek_r
 .text          0x000000000800bbb0       0x50 ../../../../tools/tools-lib/superH/libc.a(writer.o)
                0x000000000800bbb0                _write_r
 .text          0x000000000800bc00       0x50 ../../../../tools/tools-lib/superH/libc.a(readr.o)
                0x000000000800bc00                _read_r
 .text          0x000000000800bc50       0x50 ../../../../tools/tools-lib/superH/libc.a(fstatr.o)
                0x000000000800bc50                _fstat_r
 .text          0x000000000800bca0       0xa0 ../../../../tools/tools-lib/superH/libc.a(callocr.o)
                0x000000000800bca0                _calloc_r
 .text          0x000000000800bd40       0x60 ../../../../tools/tools-lib/superH/libc.a(signalr.o)
                0x000000000800bd40                _getpid_r
                0x000000000800bd50                _kill_r
 .text          0x000000000800bda0       0xa0 ../../../../tools/tools-lib/superH/libgcc.a(_si_to_df.o)
                0x000000000800bda0                __floatsidf
 .text          0x000000000800be40      0x300 ../../../../tools/tools-lib/superH/libgcc.a(_mul_df.o)
                0x000000000800be40                __muldf3
 .text          0x000000000800c140       0xd0 ../../../../tools/tools-lib/superH/libgcc.a(_usi_to_df.o)
                0x000000000800c140                __floatunsidf
 .text          0x000000000800c210      0x190 ../../../../tools/tools-lib/superH/libgcc.a(_div_df.o)
                0x000000000800c210                __divdf3
 .text          0x000000000800c3a0       0x90 ../../../../tools/tools-lib/superH/libgcc.a(_df_to_si.o)
                0x000000000800c3a0                __fixdfsi
 .text          0x000000000800c430       0x70 ../../../../tools/tools-lib/superH/libgcc.a(_udivsi3.o)
                0x000000000800c452                __udivsi3
 .text          0x000000000800c4a0       0x30 ../../../../tools/tools-lib/superH/libgcc.a(_mulsi3.o)
                0x000000000800c4a0                __mulsi3
 .text          0x000000000800c4d0       0x60 ../../../../tools/tools-lib/superH/libgcc.a(_ashiftrt.o)
                0x000000000800c4dc                __ashiftrt_r4_27
                0x000000000800c510                __ashiftrt_r4_6
                0x000000000800c500                __ashiftrt_r4_14
                0x000000000800c4f2                __ashiftrt_r4_19
                0x000000000800c50a                __ashiftrt_r4_9
                0x000000000800c51e                __ashiftrt_r4_0
                0x000000000800c4d0                __ashiftrt_r4_31
                0x000000000800c4de                __ashiftrt_r4_26
                0x000000000800c4ec                __ashiftrt_r4_22
                0x000000000800c4f8                __ashiftrt_r4_16
                0x000000000800c504                __ashiftrt_r4_12
                0x000000000800c4d8                __ashiftrt_r4_29
                0x000000000800c4f6                __ashiftrt_r4_17
                0x000000000800c4d6                __ashiftrt_r4_30
                0x000000000800c512                __ashiftrt_r4_5
                0x000000000800c50c                __ashiftrt_r4_8
                0x000000000800c4d0                __ashiftrt_r4_32
                0x000000000800c4e0                __ashiftrt_r4_25
                0x000000000800c518                __ashiftrt_r4_2
                0x000000000800c4e2                __ashiftrt_r4_24
                0x000000000800c4fe                __ashiftrt_r4_15
                0x000000000800c508                __ashiftrt_r4_10
                0x000000000800c51a                __ashiftrt_r4_1
                0x000000000800c4da                __ashiftrt_r4_28
                0x000000000800c4f0                __ashiftrt_r4_20
                0x000000000800c50e                __ashiftrt_r4_7
                0x000000000800c502                __ashiftrt_r4_13
                0x000000000800c506                __ashiftrt_r4_11
                0x000000000800c514                __ashiftrt_r4_4
                0x000000000800c4ea                __ashiftrt_r4_23
                0x000000000800c4f4                __ashiftrt_r4_18
                0x000000000800c4ee                __ashiftrt_r4_21
                0x000000000800c516                __ashiftrt_r4_3
 .text          0x000000000800c530       0x70 ../../../../tools/tools-lib/superH/libgcc.a(_lt_df.o)
                0x000000000800c530                __ltdf2
 .text          0x000000000800c5a0       0x70 ../../../../tools/tools-lib/superH/libgcc.a(_ne_df.o)
                0x000000000800c5a0                __nedf2
 .text          0x000000000800c610       0xa0 ../../../../tools/tools-lib/superH/libgcc.a(_sdivsi3.o)
                0x000000000800c610                __sdivsi3
 .text          0x000000000800c6b0       0x90 ../../../../tools/tools-lib/superH/libgcc.a(_ashiftlt.o)
                0x000000000800c6b0                __ashlsi3
 .text          0x000000000800c740       0x70 ../../../../tools/tools-lib/superH/libgcc.a(_eq_df.o)
                0x000000000800c740                __eqdf2
 .text          0x000000000800c7b0       0x90 ../../../../tools/tools-lib/superH/libgcc.a(_lshiftrt.o)
                0x000000000800c7b0                __lshrsi3
 .text          0x000000000800c840      0x390 ../../../../tools/tools-lib/superH/libgcc.a(_addsub_df.o)
                0x000000000800cb08                __subdf3
                0x000000000800cb70                __adddf3
 .text          0x000000000800cbd0       0x70 ../../../../tools/tools-lib/superH/libgcc.a(_gt_df.o)
                0x000000000800cbd0                __gtdf2
 .text          0x000000000800cc40       0x70 ../../../../tools/tools-lib/superH/libgcc.a(_ge_df.o)
                0x000000000800cc40                __gedf2
 .text          0x000000000800ccb0       0x90 ../../../../tools/tools-lib/superH/libgcc.a(_ashiftrt_n.o)
                0x000000000800ccb0                __ashrsi3
 .text          0x000000000800cd40      0x1f0 ../../../../tools/tools-lib/superH/libgcc.a(_pack_df.o)
                0x000000000800cd40                __pack_d
 .text          0x000000000800cf30       0xa0 ../../../../tools/tools-lib/superH/libgcc.a(_clzsi2.o)
                0x000000000800cf30                __clzsi2
 .text          0x000000000800cfd0       0x80 ../../../../tools/tools-lib/superH/libgcc.a(_ashldi3.o)
                0x000000000800cfd0                __ashldi3
 .text          0x000000000800d050      0x100 ../../../../tools/tools-lib/superH/libgcc.a(_unpack_df.o)
                0x000000000800d050                __unpack_d
 .text          0x000000000800d150       0xd0 ../../../../tools/tools-lib/superH/libgcc.a(_muldi3.o)
                0x000000000800d150                __muldi3
 .text          0x000000000800d220       0x20 ../../../../tools/tools-lib/superH/libgcc.a(_thenan_df.o)
                0x000000000800d220                __thenan_df
 .text          0x000000000800d240       0x80 ../../../../tools/tools-lib/superH/libgcc.a(_lshrdi3.o)
                0x000000000800d240                __lshrdi3
 .text          0x000000000800d2c0       0xc0 ../../../../tools/tools-lib/superH/libgcc.a(_fpcmp_parts_df.o)
                0x000000000800d2c0                __fpcmp_parts_d
 .text          0x000000000800d380      0x100 ../../../../tools/tools-lib/superH/libgcc.a(_clz.o)
                0x000000000800d380                __clz_tab
 *(.strings)
                0x000000000800d480                _etext = .

.data           0x000000000800d480      0xe20
                0x000000000800d480                _data = .
 *(.data)
 .data          0x000000000800d480      0x710 sift-mac.o
                0x000000000800d4a0                sift_randtable
                0x000000000800db80                SIFT_BCAST_ADDR
 .data          0x000000000800db90      0x2f0 ../../../../tools/tools-lib/superH/libc.a(impure.o)
                0x000000000800db90                _impure_ptr
 .data          0x000000000800de80      0x410 ../../../../tools/tools-lib/superH/libc.a(mallocr.o)
                0x000000000800de80                __malloc_av_
                0x000000000800e288                __malloc_trim_threshold
                0x000000000800e28c                __malloc_sbrk_base
 .data          0x000000000800e290       0x10 ../../../../tools/tools-lib/superH/libc.a(locale.o)
                0x000000000800e290                __mb_cur_max
                0x000000000800e2a0                _edata = .

.bss            0x000000000800e2a0       0x94
                0x000000000800e2a0                _bss = .
 *(.bss)
 .bss           0x000000000800e2a0       0x40 ../../../../tools/tools-lib/superH/libc.a(mallocr.o)
                0x000000000800e2a0                __malloc_top_pad
                0x000000000800e2ac                __malloc_current_mallinfo
                0x000000000800e2a4                __malloc_max_sbrked_mem
                0x000000000800e2a8                __malloc_max_total_mem
 .bss           0x000000000800e2e0       0x10 ../../../../tools/tools-lib/superH/libc.a(syscalls.o)
 *(COMMON)
 COMMON         0x000000000800e2f0       0x34 pendulum.o
                0x000000000800e2f0                SIFT_MAC
                0x000000000800e300                REGSAVESTACK
 *fill*         0x000000000800e324        0xc 00
 COMMON         0x000000000800e330        0x4 ../../../../tools/tools-lib/superH/libc.a(syscalls.o)
                0x000000000800e330                errno
                0x000000000800e334                _ebss = .
                0x000000000800e334                _end = .
LOAD init.o
LOAD devrtc.o
LOAD devrand.o
LOAD devexcp.o
LOAD misc.o
LOAD devsensor.o
LOAD devloc.o
LOAD devmac.o
LOAD sift-mac.o
LOAD pendulum.o
LOAD ../../../../sys/libOS/eOS/libeOS-superH.a
LOAD ../../../../tools/tools-lib/superH/libm.a
LOAD ../../../../tools/tools-lib/superH/libc.a
LOAD ../../../../tools/tools-lib/superH/libgcc.a
OUTPUT(pendulum coff-sh)

.stab           0x000000000800e334     0x3440
 .stab          0x000000000800e334      0x198 devrtc.o
 .stab          0x000000000800e4cc      0x1d4 devrand.o
                                        0x1f8 (size before relaxing)
 .stab          0x000000000800e6a0      0x108 devexcp.o
                                        0x114 (size before relaxing)
 .stab          0x000000000800e7a8      0x354 misc.o
                                        0x39c (size before relaxing)
 .stab          0x000000000800eafc      0x15c devsensor.o
                                        0x1a4 (size before relaxing)
 .stab          0x000000000800ec58      0x450 devloc.o
                                        0x498 (size before relaxing)
 .stab          0x000000000800f0a8      0xba0 devmac.o
                                        0xbc4 (size before relaxing)
 .stab          0x000000000800fc48     0x13a4 sift-mac.o
                                       0x1404 (size before relaxing)
 .stab          0x0000000008010fec      0x780 pendulum.o
                                        0xa74 (size before relaxing)

.comment        0x0000000008011770      0x820
 .comment       0x0000000008011770       0x20 devrtc.o
 .comment       0x0000000008011790       0x20 devrand.o
 .comment       0x00000000080117b0       0x20 devexcp.o
 .comment       0x00000000080117d0       0x20 misc.o
 .comment       0x00000000080117f0       0x20 devsensor.o
 .comment       0x0000000008011810       0x20 devloc.o
 .comment       0x0000000008011830       0x20 devmac.o
 .comment       0x0000000008011850       0x20 sift-mac.o
 .comment       0x0000000008011870       0x20 pendulum.o
 .comment       0x0000000008011890       0x20 ../../../../sys/libOS/eOS/libeOS-superH.a(memmove.o)
 .comment       0x00000000080118b0       0x20 ../../../../sys/libOS/eOS/libeOS-superH.a(print.o)
 .comment       0x00000000080118d0       0x20 ../../../../tools/tools-lib/superH/libc.a(malloc.o)
 .comment       0x00000000080118f0       0x20 ../../../../tools/tools-lib/superH/libc.a(printf.o)
 .comment       0x0000000008011910       0x20 ../../../../tools/tools-lib/superH/libc.a(exit.o)
 .comment       0x0000000008011930       0x20 ../../../../tools/tools-lib/superH/libc.a(impure.o)
 .comment       0x0000000008011950       0x20 ../../../../tools/tools-lib/superH/libc.a(freer.o)
 .comment       0x0000000008011970       0x20 ../../../../tools/tools-lib/superH/libc.a(mallocr.o)
 .comment       0x0000000008011990       0x20 ../../../../tools/tools-lib/superH/libc.a(vfprintf.o)
 .comment       0x00000000080119b0       0x20 ../../../../tools/tools-lib/superH/libc.a(syscalls.o)
 .comment       0x00000000080119d0       0x20 ../../../../tools/tools-lib/superH/libc.a(mlock.o)
 .comment       0x00000000080119f0       0x20 ../../../../tools/tools-lib/superH/libc.a(sbrkr.o)
 .comment       0x0000000008011a10       0x20 ../../../../tools/tools-lib/superH/libc.a(fvwrite.o)
 .comment       0x0000000008011a30       0x20 ../../../../tools/tools-lib/superH/libc.a(findfp.o)
 .comment       0x0000000008011a50       0x20 ../../../../tools/tools-lib/superH/libc.a(locale.o)
 .comment       0x0000000008011a70       0x20 ../../../../tools/tools-lib/superH/libc.a(mbtowc_r.o)
 .comment       0x0000000008011a90       0x20 ../../../../tools/tools-lib/superH/libc.a(strlen.o)
 .comment       0x0000000008011ab0       0x20 ../../../../tools/tools-lib/superH/libc.a(fflush.o)
 .comment       0x0000000008011ad0       0x20 ../../../../tools/tools-lib/superH/libc.a(wsetup.o)
 .comment       0x0000000008011af0       0x20 ../../../../tools/tools-lib/superH/libc.a(memchr.o)
 .comment       0x0000000008011b10       0x20 ../../../../tools/tools-lib/superH/libc.a(s_isinf.o)
 .comment       0x0000000008011b30       0x20 ../../../../tools/tools-lib/superH/libc.a(s_isnan.o)
 .comment       0x0000000008011b50       0x20 ../../../../tools/tools-lib/superH/libc.a(dtoa.o)
 .comment       0x0000000008011b70       0x20 ../../../../tools/tools-lib/superH/libc.a(abort.o)
 .comment       0x0000000008011b90       0x20 ../../../../tools/tools-lib/superH/libc.a(stdio.o)
 .comment       0x0000000008011bb0       0x20 ../../../../tools/tools-lib/superH/libc.a(fwalk.o)
 .comment       0x0000000008011bd0       0x20 ../../../../tools/tools-lib/superH/libc.a(makebuf.o)
 .comment       0x0000000008011bf0       0x20 ../../../../tools/tools-lib/superH/libc.a(mprec.o)
 .comment       0x0000000008011c10       0x20 ../../../../tools/tools-lib/superH/libc.a(signal.o)
 .comment       0x0000000008011c30       0x20 ../../../../tools/tools-lib/superH/libc.a(closer.o)
 .comment       0x0000000008011c50       0x20 ../../../../tools/tools-lib/superH/libc.a(lseekr.o)
 .comment       0x0000000008011c70       0x20 ../../../../tools/tools-lib/superH/libc.a(writer.o)
 .comment       0x0000000008011c90       0x20 ../../../../tools/tools-lib/superH/libc.a(readr.o)
 .comment       0x0000000008011cb0       0x20 ../../../../tools/tools-lib/superH/libc.a(fstatr.o)
 .comment       0x0000000008011cd0       0x20 ../../../../tools/tools-lib/superH/libc.a(callocr.o)
 .comment       0x0000000008011cf0       0x20 ../../../../tools/tools-lib/superH/libc.a(signalr.o)
 .comment       0x0000000008011d10       0x20 ../../../../tools/tools-lib/superH/libgcc.a(_si_to_df.o)
 .comment       0x0000000008011d30       0x20 ../../../../tools/tools-lib/superH/libgcc.a(_mul_df.o)
 .comment       0x0000000008011d50       0x20 ../../../../tools/tools-lib/superH/libgcc.a(_usi_to_df.o)
 .comment       0x0000000008011d70       0x20 ../../../../tools/tools-lib/superH/libgcc.a(_div_df.o)
 .comment       0x0000000008011d90       0x20 ../../../../tools/tools-lib/superH/libgcc.a(_df_to_si.o)
 .comment       0x0000000008011db0       0x20 ../../../../tools/tools-lib/superH/libgcc.a(_lt_df.o)
 .comment       0x0000000008011dd0       0x20 ../../../../tools/tools-lib/superH/libgcc.a(_ne_df.o)
 .comment       0x0000000008011df0       0x20 ../../../../tools/tools-lib/superH/libgcc.a(_eq_df.o)
 .comment       0x0000000008011e10       0x20 ../../../../tools/tools-lib/superH/libgcc.a(_addsub_df.o)
 .comment       0x0000000008011e30       0x20 ../../../../tools/tools-lib/superH/libgcc.a(_gt_df.o)
 .comment       0x0000000008011e50       0x20 ../../../../tools/tools-lib/superH/libgcc.a(_ge_df.o)
 .comment       0x0000000008011e70       0x20 ../../../../tools/tools-lib/superH/libgcc.a(_pack_df.o)
 .comment       0x0000000008011e90       0x20 ../../../../tools/tools-lib/superH/libgcc.a(_clzsi2.o)
 .comment       0x0000000008011eb0       0x20 ../../../../tools/tools-lib/superH/libgcc.a(_ashldi3.o)
 .comment       0x0000000008011ed0       0x20 ../../../../tools/tools-lib/superH/libgcc.a(_unpack_df.o)
 .comment       0x0000000008011ef0       0x20 ../../../../tools/tools-lib/superH/libgcc.a(_muldi3.o)
 .comment       0x0000000008011f10       0x20 ../../../../tools/tools-lib/superH/libgcc.a(_thenan_df.o)
 .comment       0x0000000008011f30       0x20 ../../../../tools/tools-lib/superH/libgcc.a(_lshrdi3.o)
 .comment       0x0000000008011f50       0x20 ../../../../tools/tools-lib/superH/libgcc.a(_fpcmp_parts_df.o)
 .comment       0x0000000008011f70       0x20 ../../../../tools/tools-lib/superH/libgcc.a(_clz.o)

.stabstr        0x0000000008011f90     0x8046
 .stabstr       0x0000000008011f90     0x8046 devrtc.o
